; Function Attrs: nofree norecurse nosync nounwind memory(readwrite, inaccessiblemem: none) uwtable
define void @Nwk_ManCleanMarks(ptr noundef readonly captures(none) %0) local_unnamed_addr #0 {
  %2 = getelementptr inbounds nuw i8, ptr %0, i64 32
  %3 = load ptr, ptr %2, align 8, !tbaa !15
  %4 = getelementptr i8, ptr %3, i64 4
  %.val9 = load i32, ptr %4, align 4, !tbaa !16
  %5 = icmp sgt i32 %.val9, 0
  br i1 %5, label %.lr.ph, label %.critedge

.lr.ph:                                           ; preds = %1, %15
  %6 = phi ptr [ %16, %15 ], [ %3, %1 ]
  %indvars.iv = phi i64 [ %indvars.iv.next, %15 ], [ 0, %1 ]
  %7 = getelementptr i8, ptr %6, i64 8
  %.val8 = load ptr, ptr %7, align 8, !tbaa !18
  %8 = getelementptr inbounds nuw ptr, ptr %.val8, i64 %indvars.iv
  %9 = load ptr, ptr %8, align 8, !tbaa !19
  %10 = icmp eq ptr %9, null
  br i1 %10, label %15, label %11

11:                                               ; preds = %.lr.ph
  %12 = getelementptr inbounds nuw i8, ptr %9, i64 32
  %13 = load i32, ptr %12, align 8
  %14 = and i32 %13, -49
  store i32 %14, ptr %12, align 8
  %.pre = load ptr, ptr %2, align 8, !tbaa !15
  br label %15

15:                                               ; preds = %11, %.lr.ph
  %16 = phi ptr [ %.pre, %11 ], [ %6, %.lr.ph ]
  %indvars.iv.next = add nuw nsw i64 %indvars.iv, 1
  %17 = getelementptr i8, ptr %16, i64 4
  %.val = load i32, ptr %17, align 4, !tbaa !16
  %18 = sext i32 %.val to i64
  %19 = icmp slt i64 %indvars.iv.next, %18
  br i1 %19, label %.lr.ph, label %.critedge, !llvm.loop !67

.critedge:                                        ; preds = %15, %1
  ret void
}